MPASM 5.87  /HOME/MVALSELLS/LS-SDM-P2-SONO/S   3-29-2021  12:07:34         PAGE  1


LOC  OBJECT CODE     LINE SOURCE TEXT
  VALUE

Warning[215]: Processor superseded by command line.  Verify processor symbol.
                      00001     LIST P=PIC18F4321   F=INHX32
                      00002     #include <p18f4321.inc>
                      00001         LIST
                      00002 
                      00003 ;==========================================================================
                      00004 ; Build date : Jan 06 2020
                      00005 ;  MPASM PIC18F4321 processor include
                      00006 ; 
                      00007 ;  (c) Copyright 1999-2020 Microchip Technology, All rights reserved
                      00008 ;==========================================================================
                      00009 
                      01455         LIST
                      00003 
                      00004     CONFIG OSC=HSPLL        ;Oscillador -> High Speed PLL
                      00005     CONFIG PBADEN=DIG       ;PORTB com a Digital (el posem a 0)
                      00006     CONFIG WDT=OFF          ;Desactivem el Watch Dog Timer
                      00007     CONFIG LVP=OFF          ;Evitar resets eusart
                      00008     
                      00009     ;vars
  00000000            00010 display0 EQU 0x00   ; 7seg
  00000001            00011 display1 EQU 0x01
  00000002            00012 display2 EQU 0x02
  00000003            00013 display3 EQU 0x03
  00000004            00014 display4 EQU 0x04
  00000005            00015 display5 EQU 0x05
  00000006            00016 display6 EQU 0x06
  00000007            00017 display7 EQU 0x07
  00000008            00018 display8 EQU 0x08
  00000009            00019 display9 EQU 0x09
  0000000A            00020 eusart_input EQU 0x0A   ;entrada per eusart
  0000000B            00021 pos_servo EQU 0x0B
  0000000C            00022 carrier EQU 0x0C;variable canvi de linia putty
  0000000D            00023 eusart_output EQU 0x0D
  0000000E            00024 eeprom_addr EQU 0x0E
  0000000F            00025 eeprom_data EQU 0x0F
  00000010            00026 compt_10us EQU 0x10
  00000011            00027 us_echo_58 EQU 0x11
  00000012            00028 us_echo_cm EQU 0x12
  00000013            00029 bn_ascii EQU 0x13
  00000014            00030 ascii_u EQU 0x14
  00000015            00031 ascii_d EQU 0x15
  00000016            00032 ascii_c EQU 0x16
  00000017            00033 ram_data EQU 0x17
  00000018            00034 ram_addr_count EQU 0x18
  00000019            00035 ram_200 EQU 0x19
  0000001A            00036 fsr_h EQU 0x1A
  0000001B            00037 fsr_l EQU 0x1B
  0000001C            00038 tmp EQU 0x1C
                      00039 
                      00040    
                      00041     ORG 0x000
000000 EF?? F???      00042     GOTO MAIN
MPASM 5.87  /HOME/MVALSELLS/LS-SDM-P2-SONO/S   3-29-2021  12:07:34         PAGE  2


LOC  OBJECT CODE     LINE SOURCE TEXT
  VALUE

                      00043     ORG 0x008
000008 EF?? F???      00044     GOTO HIGH_RSI
                      00045     ORG 0x018
000018 0011           00046     retfie FAST
                      00047 
00001A                00048 INIT_PORTS
                      00049     ;A
00001A 0E23           00050     movlw b'00100011'
00001C 6E92           00051     movwf TRISA,0
00001E 9489           00052     bcf LATA,2,0
000020 9889           00053     bcf LATA,4,0
                      00054     ;B
000022 0EE6           00055     movlw b'11100110'
000024 6E93           00056     movwf TRISB,0
000026 9EF1           00057     bcf INTCON2,RBPU,0
                      00058     ;C
000028 0EC0           00059     movlw b'11000000'
00002A 6E94           00060     movwf TRISC,0
00002C 908B           00061     bcf LATC,0,0;apagar 1r led
00002E 928B           00062     bcf LATC,1,0;apagar 2n led
                      00063     ;D
000030 6A95           00064     clrf TRISD,0
000032 0E00           00065     movlw b'00000000';apagar 7seg
000034 6E8C           00066     movwf LATD,0
000036 0012           00067     return
                      00068     
000038                00069 INIT_VARS
000038 0E3F           00070     movlw b'00111111';7segments
00003A 6E00           00071     movwf display0,0
00003C 0E06           00072     movlw b'00000110'
00003E 6E01           00073     movwf display1,0
000040 0E5B           00074     movlw b'01011011'
000042 6E02           00075     movwf display2,0
000044 0E4F           00076     movlw b'01001111'
000046 6E03           00077     movwf display3,0
000048 0E66           00078     movlw b'01100110'
00004A 6E04           00079     movwf display4,0
00004C 0E6D           00080     movlw b'1101101' 
00004E 6E05           00081     movwf display5,0
000050 0E3D           00082     movlw b'0111101'
000052 6E06           00083     movwf display6,0
000054 0E07           00084     movlw b'00000111'
000056 6E07           00085     movwf display7,0
000058 0E3F           00086     movlw b'0111111'
00005A 6E08           00087     movwf display8,0
00005C 0ECF           00088     movlw b'11001111'
00005E 6E09           00089     movwf display9,0
000060 0E0D           00090     movlw b'00001101';posem un carrier reurn a temp
000062 6E0C           00091     movwf carrier,0
000064 0E01           00092     MOVLW HIGH(0x100)
000066 6EE2           00093     MOVWF FSR1H,0
000068 0E00           00094     MOVLW LOW(0x100)
00006A 6EE1           00095     MOVWF FSR1L,0
MPASM 5.87  /HOME/MVALSELLS/LS-SDM-P2-SONO/S   3-29-2021  12:07:34         PAGE  3


LOC  OBJECT CODE     LINE SOURCE TEXT
  VALUE

00006C 0EC8           00096     MOVLW .200
00006E 6E18           00097     MOVWF ram_addr_count,0
000070 6A19           00098     CLRF ram_200,0
000072 0012           00099     return
000074                00100 INIT_EUSART
000074 0E24           00101     movlw b'00100100'
000076 6EAC           00102     movwf TXSTA,0
000078 0E90           00103     movlw b'10010000'
00007A 6EAB           00104     movwf RCSTA,0
00007C 0E08           00105     movlw b'00001000'
00007E 6EB8           00106     movwf BAUDCON,0
000080 0E04           00107     movlw HIGH(.1040)
000082 6EB0           00108     movwf SPBRGH,0
000084 0E10           00109     movlw LOW(.1040)
000086 6EAF           00110     movwf SPBRG,0
000088 0012           00111     return
00008A                00112 INIT_INTCONS
00008A 8ED0           00113     BSF RCON,IPEN,0
00008C 0EE0           00114     MOVLW b'11100000' ;Només timer, ja canviarem quan anem fent els altres
00008E 6EF2           00115     MOVWF INTCON,0
000090 84F1           00116     BSF INTCON2,TMR0IP,0 ; Timer -> High priority
                      00117     ;MOVLW b'0000100'; ;Només timer, ja canviarem quan anem fent els altres
                      00118     ;MOVWF INTCON2,0
000092 0012           00119     return
000094                00120 INIT_TIMER
000094 0E91           00121     MOVLW b'10010001'
000096 6ED5           00122     MOVWF T0CON,0
000098 0012           00123     RETURN
                      00124     
00009A                00125 INIT_EEPROM
00009A 9EA6           00126     BCF EECON1, EEPGD
00009C 9CA6           00127     BCF EECON1, CFGS
00009E 0012           00128     RETURN
                      00129     
0000A0                00130 INIT_ADCON
0000A0 0E0E           00131     MOVLW b'00001110'
0000A2 6EC0           00132     MOVWF ADCON2,0
0000A4 0E0E           00133     MOVLW b'00001110'
0000A6 6EC1           00134     MOVWF ADCON1,0
0000A8 80C2           00135     BSF ADCON0,ADON,0
0000AA 0012           00136     RETURN
                      00137 ;-------------------------------------------------------------------------------
0000AC                00138 MAIN
0000AC EC?? F???      00139     call INIT_VARS
0000B0 EC?? F???      00140     call INIT_PORTS
                      00141     ;call INIT_OSC      ;valors default
0000B4 EC?? F???      00142     call INIT_EUSART
0000B8 EC?? F???      00143     call INIT_INTCONS
0000BC EC?? F???      00144     call INIT_EEPROM
0000C0 EC?? F???      00145     call INIT_TIMER
0000C4 EC?? F???      00146     call CARREGA_TIMER
0000C8 EC?? F???      00147     call INIT_ADCON
0000CC                00148 LOOP
MPASM 5.87  /HOME/MVALSELLS/LS-SDM-P2-SONO/S   3-29-2021  12:07:34         PAGE  4


LOC  OBJECT CODE     LINE SOURCE TEXT
  VALUE

                      00149     ;codi
0000CC BA9E           00150     btfsc PIR1,RCIF,0
0000CE EF?? F???      00151     goto LECTOR_EUSART
0000D2 EF?? F???      00152     goto LOOP
                      00153 ;-------------------------------------------------------------------------------
0000D6                00154 HIGH_RSI
0000D6 94F2           00155     BCF INTCON,TMR0IF,0;quan salti una interrupcio qualsevol, nomes tenim timer0 de moment
0000D8 EC?? F???      00156     call CARREGA_TIMER;reiniciem el timer
0000DC 8489           00157     bsf LATA,2,0;reactivem el pin del servo
0000DE 0011           00158     retfie FAST
                      00159     
                      00160 ;TIMER
0000E0                00161 CARREGA_TIMER
0000E0 0E3C           00162     MOVLW HIGH(.15536);;cada 20ms
0000E2 6ED7           00163     MOVWF TMR0H,0
0000E4 0EB0           00164     MOVLW LOW(.15536)
0000E6 6ED6           00165     MOVWF TMR0L,0
0000E8 0012           00166     return
                      00167 
                      00168 ;Lectura EEPROM
0000EA                00169 EEPROM_READ
0000EA 500E           00170     movf eeprom_addr,0
0000EC 6EA9           00171     movwf EEADR,0
0000EE 9EA6           00172     BCF EECON1, EEPGD    ; Point to DATA memory
0000F0 9CA6           00173     BCF EECON1, CFGS     ; Access EEPROM
0000F2 80A6           00174     BSF EECON1, RD        ; EEPROM Read
0000F4 CFA8 F00F      00175     MOVFF EEDATA, eeprom_data
0000F8 0012           00176     return
                      00177 ;Escriptura EEPROM
0000FA                00178 EEPROM_WRITE
0000FA 500E           00179     movf eeprom_addr,0
0000FC 6EA9           00180     movwf EEADR,0
0000FE 500F           00181     movf eeprom_data,0
000100 6EA8           00182     movwf EEDATA,0
000102 84A6           00183     bsf EECON1,WREN
000104 9EF2           00184     bcf INTCON,GIE
000106 0E55           00185     movlw 55h
000108 6EA7           00186     movwf EECON2,0
00010A 0EAA           00187     movlw 0AAh
00010C 6EA7           00188     movwf EECON2
00010E 82A6           00189     bsf EECON1,WR
000110 EC?? F???      00190     call ESPERA_EEPROM_ESCRIURE
000114 8EF2           00191     bsf INTCON,GIE
000116 94A6           00192     bcf EECON1,WREN
000118 0012           00193     return
                      00194     
                      00195 ;RAM WRITE
00011A                00196 RAM_WRITE
00011A EE1F F0E6      00197     LFSR 1,POSTINC1
00011E C017 FFE7      00198     MOVFF ram_data,INDF1
000122 0012           00199     RETURN
                      00200 
000124                00201 ESPERA_EEPROM_ESCRIURE
MPASM 5.87  /HOME/MVALSELLS/LS-SDM-P2-SONO/S   3-29-2021  12:07:34         PAGE  5


LOC  OBJECT CODE     LINE SOURCE TEXT
  VALUE

000124 B2A6           00202     BTFSC EECON1,WR
000126 EF?? F???      00203     GOTO ESPERA_EEPROM_ESCRIURE
00012A 0012           00204     RETURN
                      00205     
                      00206 ; Ultrasons
00012C                00207 MEDIR
00012C 0EE8           00208     MOVLW .232
00012E 6E10           00209     MOVWF compt_10us
000130 8889           00210     BSF LATA,4,0 ; Trigger a high
000132                00211 INCR_10us
000132 2A10           00212     INCF compt_10us,1,0
000134 A0D8           00213     BTFSS STATUS,C
000136 EF?? F???      00214     GOTO INCR_10us
00013A 0000           00215     NOP
00013C 0000           00216     NOP
00013E 0000           00217     NOP
000140 9889           00218     BCF LATA,4,0 ;Trigger a low
                      00219         
000142                00220 ESPERA_ECHO
000142 AA80           00221     BTFSS PORTA,5,0 ; esperem el echo a high
000144 EF?? F???      00222     GOTO ESPERA_ECHO
                      00223     ;BSF LATD,3,0
000148 6A12           00224     CLRF us_echo_cm,0
00014A                00225 INICI_ECHO
00014A 0E3C           00226     MOVLW .60 ;64               ;1
00014C 6E11           00227     MOVWF us_echo_58,0  ;1
00014E                00228 COMPTAR_58
00014E 3E11           00229     INCFSZ us_echo_58,f,0       ;1
000150 EF?? F???      00230     GOTO COMPTAR_58     ;2
000154 2A12           00231     INCF us_echo_cm,f,0 ;2=1+1
000156 BA80           00232     BTFSC PORTA,5,0     ;1 Mentre el echo no estigui a low anem comptant
000158 EF?? F???      00233     GOTO INICI_ECHO     ;2
00015C 0612           00234     DECF us_echo_cm,f,0
                      00235     
00015E C012 F017      00236     MOVFF us_echo_cm,ram_data
000162 EC?? F???      00237     CALL RAM_WRITE
000166 2E18           00238     DECFSZ ram_addr_count,f,0
000168 0012           00239     RETURN
00016A 0EC8           00240     MOVLW .200
00016C 6E18           00241     MOVWF ram_addr_count,0
00016E 6819           00242     SETF ram_200,0
000170 0012           00243     RETURN
                      00244     
                      00245 ;Binary -> ASCII
000172                00246 BN_2_ASCII ;Input: bn_ascii; Output: ascii_c, ascii_d, ascii_u
000172 6A14           00247     CLRF ascii_u,0
000174 6A15           00248     CLRF ascii_d,0
000176 6A16           00249     CLRF ascii_c,0
000178                00250 BN_2_ASCII_LOOP
000178 0E00           00251     MOVLW .0
00017A 6413           00252     CPFSGT bn_ascii,0; Si bn_ascii <=0 -> Fi ASCII
00017C EF?? F???      00253     GOTO FI_ASCII
                      00254     
MPASM 5.87  /HOME/MVALSELLS/LS-SDM-P2-SONO/S   3-29-2021  12:07:34         PAGE  6


LOC  OBJECT CODE     LINE SOURCE TEXT
  VALUE

000180 2A14           00255     INCF ascii_u,f,0
000182 0E0A           00256     MOVLW .10
000184 6014           00257     CPFSLT ascii_u,0 ; Si >=10 anem a desenes
000186 EF?? F???      00258     GOTO DESENES_ASCII
00018A EF?? F???      00259     GOTO BN_2_ASCII_LOOP_FI
                      00260 
00018E                00261 DESENES_ASCII
00018E 6A14           00262     CLRF ascii_u,0
000190 2A15           00263     INCF ascii_d,f,0
000192 0E0A           00264     MOVLW .10
000194 6015           00265     CPFSLT ascii_d,0 ; Si >=10 anem a centenes
000196 EF?? F???      00266     GOTO CENTENES_ASCII
00019A EF?? F???      00267     GOTO BN_2_ASCII_LOOP_FI
                      00268     
00019E                00269 CENTENES_ASCII
00019E 6A15           00270     CLRF ascii_d,0
0001A0 2A16           00271     INCF ascii_c,f,0
                      00272     
0001A2                00273 BN_2_ASCII_LOOP_FI
0001A2 4E13           00274     DCFSNZ bn_ascii,f,0 ; Decrementem, bn_ascii=0 -> Fi, !=0 -> Loop
0001A4 EF?? F???      00275     GOTO FI_ASCII
0001A8 EF?? F???      00276     GOTO BN_2_ASCII_LOOP
                      00277         
0001AC                00278 FI_ASCII
0001AC 0E30           00279     MOVLW .48
0001AE 2614           00280     ADDWF ascii_u,f,0
0001B0 0E30           00281     MOVLW .48
0001B2 2615           00282     ADDWF ascii_d,f,0
0001B4 0E30           00283     MOVLW .48
0001B6 2616           00284     ADDWF ascii_c,f,0
0001B8 0012           00285     RETURN
                      00286     
                      00287 ; ASCII -> EUSART    
0001BA                00288 TX_BN_2_ASCII
0001BA C016 FFAD      00289     MOVFF ascii_c,TXREG
0001BE EC?? F???      00290     CALL ESPERA_TX
0001C2 C015 FFAD      00291     MOVFF ascii_d,TXREG
0001C6 EC?? F???      00292     CALL ESPERA_TX
0001CA C014 FFAD      00293     MOVFF ascii_u,TXREG
0001CE EC?? F???      00294     CALL ESPERA_TX
0001D2 0012           00295     RETURN
                      00296     
                      00297 ;JOYSTICK-ADCON
0001D4                00298 LLEGIR_JOY
0001D4 82C2           00299    BSF ADCON0,1,0 ; Comencem la conversió
0001D6                00300 ESPERA_CONVERSIO
0001D6 B2C2           00301    BTFSC ADCON0,1,0
0001D8 EF?? F???      00302    GOTO ESPERA_CONVERSIO
0001DC CFC4 F013      00303    MOVFF ADRESH,bn_ascii
0001E0 EC?? F???      00304    CALL BN_2_ASCII
0001E4 EC?? F???      00305    CALL TX_BN_2_ASCII
0001E8 0E2D           00306    MOVLW '-'
0001EA 6EAD           00307    MOVWF TXREG,0
MPASM 5.87  /HOME/MVALSELLS/LS-SDM-P2-SONO/S   3-29-2021  12:07:34         PAGE  7


LOC  OBJECT CODE     LINE SOURCE TEXT
  VALUE

0001EC EC?? F???      00308    CALL ESPERA_TX
0001F0 CFC3 F013      00309    MOVFF ADRESL,bn_ascii
0001F4 EC?? F???      00310    CALL BN_2_ASCII
0001F8 EC?? F???      00311    CALL TX_BN_2_ASCII
0001FC EC?? F???      00312    CALL TX_ENTER
000200 0012           00313    RETURN
                      00314 ;-------------------------------------------------------------------------------
                      00315 ;EUSART
                      00316 
000202                00317 ESPERA_TX
000202 A2AC           00318     BTFSS TXSTA,TRMT,0
000204 EF?? F???      00319     GOTO ESPERA_TX
000208 0012           00320     return    
00020A                00321 LLEGIR_RX
00020A AA9E           00322     btfss PIR1,RCIF,0
00020C EF?? F???      00323     goto LLEGIR_RX
000210 50AE           00324     movf RCREG,0,0
000212 6E0A           00325     movwf eusart_input,0
000214 C00A FFAD      00326     movff eusart_input,TXREG
000218 EC?? F???      00327     call ESPERA_TX
00021C 0012           00328     return
                      00329     
00021E                00330 TX_ENTER
00021E 0E0A           00331     MOVLW '\n';salt de linia
000220 6EAD           00332     MOVWF TXREG,0
000222 EC?? F???      00333     CALL ESPERA_TX
000226 0E0D           00334     MOVLW '\r';inici de linia
000228 6EAD           00335     MOVWF TXREG,0
00022A EC?? F???      00336     CALL ESPERA_TX
00022E 0012           00337     return
                      00338     
                      00339 ;---- INICI MODE ----
000230                00340 LECTOR_EUSART
000230 50AE           00341     movf RCREG,0,0
000232 6E0A           00342     movwf eusart_input,0
000234 C00A FFAD      00343     movff eusart_input,TXREG
000238 EC?? F???      00344     call ESPERA_TX
00023C EC?? F???      00345     call TX_ENTER
                      00346     ;Canvi de mode, apaguem els LEDS i el 7 seg
                      00347     ;REVISAR SI ES OK EN CAS DE QUE POSSIN UNA LLETRA INCORRECTE
000240 6A8C           00348     CLRF LATD,0
000242 908B           00349     BCF LATC,0,0
000244 928B           00350     BCF LATC,1,0
000246 0E41           00351     movlw 'A'
000248 620A           00352     CPFSEQ eusart_input,0
00024A EF?? F???      00353     goto NEXT_A
00024E EF?? F???      00354     goto MODE_A
000252                00355 NEXT_A
000252 0E44           00356     movlw 'D'
000254 620A           00357     CPFSEQ eusart_input,0
000256 EF?? F???      00358     goto NEXT_D
00025A EF?? F???      00359     goto MODE_D
00025E                00360 NEXT_D
MPASM 5.87  /HOME/MVALSELLS/LS-SDM-P2-SONO/S   3-29-2021  12:07:34         PAGE  8


LOC  OBJECT CODE     LINE SOURCE TEXT
  VALUE

00025E 0E49           00361     movlw 'I'
000260 620A           00362     CPFSEQ eusart_input,0
000262 EF?? F???      00363     goto NEXT_I
000266 EF?? F???      00364     goto MODE_I
00026A                00365 NEXT_I
00026A 0E4D           00366     movlw 'M'
00026C 620A           00367     CPFSEQ eusart_input,0
00026E EF?? F???      00368     goto NEXT_M
000272 EF?? F???      00369     goto MODE_M
000276                00370 NEXT_M
000276 0E52           00371     movlw 'R'
000278 620A           00372     CPFSEQ eusart_input,0
00027A EF?? F???      00373     goto NEXT_R
00027E EF?? F???      00374     goto MODE_R
000282                00375 NEXT_R
000282 0E53           00376     movlw 'S'
000284 620A           00377     CPFSEQ eusart_input,0
000286 EF?? F???      00378     goto NEXT_S
00028A EF?? F???      00379     goto MODE_S
00028E                00380 NEXT_S
00028E 0E54           00381     movlw 'T'
000290 620A           00382     CPFSEQ eusart_input,0
000292 EF?? F???      00383     goto NEXT_T
000296 EF?? F???      00384     goto MODE_T
00029A                00385 NEXT_T
00029A 0E55           00386     movlw 'U'
00029C 620A           00387     CPFSEQ eusart_input,0
00029E EF?? F???      00388     goto NEXT_U
0002A2 EF?? F???      00389     goto MODE_U
0002A6                00390 NEXT_U
0002A6 EC?? F???      00391     call MEDIR
0002AA EF?? F???      00392     goto LOOP
                      00393     ;no s'ha clicat cap tecla si arriba aqui
                      00394     
                      00395     
                      00396     
                      00397     
                      00398 ;-------------------------------
0002AE                00399 MODE_A
0002AE C007 FF8C      00400     movff display7,LATD
0002B2 808B           00401     BSF LATC,0,0
0002B4 828B           00402     BSF LATC,1,0
                      00403     ;acabat
0002B6 908B           00404     BCF LATC,0,0
0002B8 928B           00405     BCF LATC,1,0
0002BA EF?? F???      00406     GOTO LOOP
0002BE                00407 MODE_D
0002BE C003 FF8C      00408     movff display3,LATD
                      00409     ;pulsadors +5º -5º per pulsador
0002C2 B481           00410     btfsc PORTB,2,0
0002C4 EF?? F???      00411     GOTO MirarRB1
0002C8 0EB4           00412     MOVLW .180
0002CA 620B           00413     CPFSEQ pos_servo,0 
MPASM 5.87  /HOME/MVALSELLS/LS-SDM-P2-SONO/S   3-29-2021  12:07:34         PAGE  9


LOC  OBJECT CODE     LINE SOURCE TEXT
  VALUE

                      00414 ;    call moure_5graus_mes
0002CC                00415 MirarRB1    
0002CC A281           00416     btfss PORTB,1,0
0002CE 728B           00417     btg LATC,1,0
                      00418     
                      00419    ; GOTO MODE_D
                      00420     ;acabat
0002D0 EF?? F???      00421     goto LOOP
                      00422     
                      00423 
0002D4                00424 MODE_I
                      00425     ;fixar 7seg a 0
0002D4 C000 FF8C      00426     movff display0,LATD
                      00427     ;llegir caracters  fins un /n (no ven bé \n). Guardar-lo cada cop que el reben.
0002D8 0E00           00428     movlw .0 ;reinici adressa
0002DA 6E0E           00429     movwf eeprom_addr
                      00430     
                      00431     ;llegir
0002DC                00432 LLEGIR_I
                      00433 
0002DC EC?? F???      00434     call LLEGIR_RX
0002E0 C00A F00F      00435     movff eusart_input,eeprom_data
0002E4 EC?? F???      00436     call EEPROM_WRITE
                      00437 
0002E8 0E0D           00438     movlw '\r';esperem a un enter
0002EA 620A           00439     cpfseq eusart_input,0
0002EC EF?? F???      00440     goto NO_ENTER
0002F0 EF?? F???      00441     goto ACABAT_I
0002F4                00442 NO_ENTER
0002F4 2A0E           00443     incf eeprom_addr;seguent adr
0002F6 0E78           00444     movlw .120          ;mirar si >120
0002F8 620E           00445     cpfseq eeprom_addr,0
0002FA EF?? F???      00446     goto LLEGIR_I
                      00447 
0002FE                00448 ACABAT_I
0002FE EC?? F???      00449     call TX_ENTER
                      00450      ;guardar un carrier return extra
000302 0E0D           00451     movlw b'00001101'
000304 6E0F           00452     movwf eeprom_data
000306 EC?? F???      00453     call EEPROM_WRITE
                      00454 
                      00455     ;acabat
00030A EF?? F???      00456     goto LOOP
                      00457     
00030E                00458 MODE_M
00030E C002 FF8C      00459     movff display2,LATD
                      00460     ;mostrar ultima mesura si no estem a 0 de mesures
                      00461     
                      00462     
                      00463     ;acabat
000312 BA9E           00464     btfsc PIR1,RCIF,0
000314 EF?? F???      00465     goto LECTOR_EUSART
000318 EF?? F???      00466     goto MODE_M
MPASM 5.87  /HOME/MVALSELLS/LS-SDM-P2-SONO/S   3-29-2021  12:07:34         PAGE 10


LOC  OBJECT CODE     LINE SOURCE TEXT
  VALUE

                      00467     
00031C                00468 MODE_R;mostrar nom i 200 mesures
00031C C001 FF8C      00469     movff display1,LATD
                      00470     ;MOSTRAR NOM (part 1/2)
000320 0E4E           00471     movlw 'N'
000322 6EAD           00472     movwf TXREG,0
000324 EC?? F???      00473     call ESPERA_TX
000328 0E6F           00474     movlw 'o'
00032A 6EAD           00475     movwf TXREG,0
00032C EC?? F???      00476     call ESPERA_TX
000330 0E6D           00477     movlw 'm'
000332 6EAD           00478     movwf TXREG,0
000334 EC?? F???      00479     call ESPERA_TX
000338 0E3A           00480     movlw ':'
00033A 6EAD           00481     movwf TXREG,0
00033C EC?? F???      00482     call ESPERA_TX
000340 0E20           00483     movlw ' '
000342 6EAD           00484     movwf TXREG,0
000344 EC?? F???      00485     call ESPERA_TX
000348 0E00           00486     movlw .0 ;reinici adressa
00034A 6E0E           00487     movwf eeprom_addr
                      00488     
00034C                00489 BUCLE_NOM
                      00490     ;call ESPERA_TX
00034C EC?? F???      00491     call EEPROM_READ
000350 C00F FFAD      00492     movff eeprom_data, TXREG
000354 EC?? F???      00493     call ESPERA_TX
000358 0E0D           00494     movlw '\r' ;carrier
00035A 620F           00495     cpfseq eeprom_data,0
00035C EF?? F???      00496     goto CONTINUA_NOM
000360 0E0A           00497     movlw '\n'
000362 6EAD           00498     movwf TXREG,0
000364 EC?? F???      00499     call ESPERA_TX
000368 EF?? F???      00500     goto MOSTRA_MESURES
00036C                00501 CONTINUA_NOM
00036C 2A0E           00502     incf eeprom_addr
00036E EF?? F???      00503     goto BUCLE_NOM  
                      00504     
                      00505     ;MOSTRAR ULTIMES 200 MESURES (PART 2/2)
000372                00506 MOSTRA_MESURES
000372 0E4D           00507     movlw 'M'
000374 6EAD           00508     movwf TXREG,0
000376 EC?? F???      00509     call ESPERA_TX
00037A 0E65           00510     movlw 'e'
00037C 6EAD           00511     movwf TXREG,0
00037E EC?? F???      00512     call ESPERA_TX
000382 0E73           00513     movlw 's'
000384 6EAD           00514     movwf TXREG,0
000386 EC?? F???      00515     call ESPERA_TX
00038A 0E75           00516     movlw 'u'
00038C 6EAD           00517     movwf TXREG,0
00038E EC?? F???      00518     call ESPERA_TX
000392 0E72           00519     movlw 'r'
MPASM 5.87  /HOME/MVALSELLS/LS-SDM-P2-SONO/S   3-29-2021  12:07:34         PAGE 11


LOC  OBJECT CODE     LINE SOURCE TEXT
  VALUE

000394 6EAD           00520     movwf TXREG,0
000396 0E65           00521     movlw 'e'
000398 6EAD           00522     movwf TXREG,0
00039A EC?? F???      00523     call ESPERA_TX
00039E 0E73           00524     movlw 's'
0003A0 6EAD           00525     movwf TXREG,0
0003A2 EC?? F???      00526     call ESPERA_TX
0003A6 0E3A           00527     movlw ':'
0003A8 6EAD           00528     movwf TXREG,0
0003AA EC?? F???      00529     call ESPERA_TX
0003AE EC?? F???      00530     call TX_ENTER
                      00531     ;LLEGIR RAM
0003B2 CFE2 F01A      00532     MOVFF FSR1H,fsr_h
0003B6 CFE1 F01B      00533     MOVFF FSR1L,fsr_l
0003BA 0E00           00534     MOVLW LOW(0x100)
0003BC 6EE1           00535     MOVWF FSR1L,0
0003BE 0E01           00536     MOVLW HIGH(0x100)
0003C0 6EE2           00537     MOVWF FSR1H,0
0003C2 0EC8           00538     MOVLW .200
0003C4 6E1C           00539     MOVWF tmp,0
0003C6                00540 BUCLE_LLEGIR_RAM
0003C6 EE10 F001      00541     LFSR 1,FSR1
0003CA CFE6 F013      00542     MOVFF POSTINC1,bn_ascii
0003CE EC?? F???      00543     CALL BN_2_ASCII
0003D2 EC?? F???      00544     CALL TX_BN_2_ASCII
0003D6 EC?? F???      00545     CALL TX_ENTER
0003DA 2E1C           00546     DECFSZ tmp,f,0
0003DC EF?? F???      00547     GOTO BUCLE_LLEGIR_RAM
                      00548         
                      00549     ;acabat
0003E0 EF?? F???      00550     goto LOOP
0003E4                00551 MODE_S
0003E4 C004 FF8C      00552     movff display4,LATD
                      00553     ;codi S
0003E8 EC?? F???      00554     CALL LLEGIR_JOY
0003EC EF?? F???      00555     GOTO LOOP
0003F0                00556 MODE_T
0003F0 C005 FF8C      00557     movff display5,LATD
                      00558     ;codi T
0003F4 EF?? F???      00559     goto LOOP
0003F8                00560 MODE_U
0003F8 808B           00561     BSF LATC,0,0
0003FA EC?? F???      00562     call MEDIR
0003FE C012 F013      00563     MOVFF us_echo_cm,bn_ascii
000402 EC?? F???      00564     CALL BN_2_ASCII
000406 EC?? F???      00565     CALL TX_BN_2_ASCII
00040A 0E63           00566     MOVLW 'c'
00040C 6EAD           00567     MOVWF TXREG
00040E EC?? F???      00568     CALL ESPERA_TX
000412 0E6D           00569     MOVLW 'm'
000414 6EAD           00570     MOVWF TXREG
000416 EC?? F???      00571     CALL ESPERA_TX
00041A EC?? F???      00572     CALL TX_ENTER
MPASM 5.87  /HOME/MVALSELLS/LS-SDM-P2-SONO/S   3-29-2021  12:07:34         PAGE 12


LOC  OBJECT CODE     LINE SOURCE TEXT
  VALUE

                      00573     
                      00574     ;Acabat
00041E 908B           00575     BCF LATC,0,0
000420 EF?? F???      00576     GOTO LOOP
                      00577 
                      00578     END
MPASM 5.87  /HOME/MVALSELLS/LS-SDM-P2-SONO/S   3-29-2021  12:07:34         PAGE 13


SYMBOL TABLE
  LABEL                             VALUE 

A                                 00000000
ABDEN                             00000000
ABDOVF                            00000007
ACABAT_I                          000002FE
ACCESS                            00000000
ACKDT                             00000005
ACKEN                             00000004
ACKSTAT                           00000006
ACQT0                             00000003
ACQT1                             00000004
ACQT2                             00000005
ADCON0                            00000FC2
ADCON1                            00000FC1
ADCON2                            00000FC0
ADCS0                             00000000
ADCS1                             00000001
ADCS2                             00000002
ADDEN                             00000003
ADEN                              00000003
ADFM                              00000007
ADIE                              00000006
ADIF                              00000006
ADIP                              00000006
ADMSK1                            00000001
ADMSK2                            00000002
ADMSK3                            00000003
ADMSK4                            00000004
ADMSK5                            00000005
ADON                              00000000
ADRES                             00000FC3
ADRESH                            00000FC4
ADRESL                            00000FC3
AN0                               00000000
AN1                               00000001
AN10                              00000001
AN11                              00000004
AN12                              00000000
AN2                               00000002
AN3                               00000003
AN4                               00000005
AN5                               00000000
AN6                               00000001
AN7                               00000002
AN8                               00000002
AN9                               00000003
BANKED                            00000001
BAUDCON                           00000FB8
BAUDCTL                           00000FB8
BCLIE                             00000003
BCLIF                             00000003
BCLIP                             00000003
BF                                00000000
BGST                              00000005
MPASM 5.87  /HOME/MVALSELLS/LS-SDM-P2-SONO/S   3-29-2021  12:07:34         PAGE 14


SYMBOL TABLE
  LABEL                             VALUE 

BN_2_ASCII                        00000172
BN_2_ASCII_LOOP                   00000178
BN_2_ASCII_LOOP_FI                000001A2
BOR                               00000000
BRG16                             00000003
BRGH                              00000002
BSR                               00000FE0
BUCLE_LLEGIR_RAM                  000003C6
BUCLE_NOM                         0000034C
C                                 00000000
C1INV                             00000004
C1N                               00000000
C1OUT_CMCON                       00000006
C1OUT_PORTA                       00000004
C1P                               00000003
C2INV                             00000005
C2N                               00000001
C2OUT_CMCON                       00000007
C2OUT_PORTA                       00000005
C2P                               00000002
CARREGA_TIMER                     000000E0
CCP1                              00000002
CCP1CON                           00000FBD
CCP1IE                            00000002
CCP1IF                            00000002
CCP1IP                            00000002
CCP1M0                            00000000
CCP1M1                            00000001
CCP1M2                            00000002
CCP1M3                            00000003
CCP1X                             00000005
CCP1Y                             00000004
CCP2CON                           00000FBA
CCP2IE                            00000000
CCP2IF                            00000000
CCP2IP                            00000000
CCP2M0                            00000000
CCP2M1                            00000001
CCP2M2                            00000002
CCP2M3                            00000003
CCP2X                             00000005
CCP2Y                             00000004
CCP2_PORTB                        00000003
CCP2_PORTC                        00000001
CCPR1                             00000FBE
CCPR1H                            00000FBF
CCPR1L                            00000FBE
CCPR2                             00000FBB
CCPR2H                            00000FBC
CCPR2L                            00000FBB
CENTENES_ASCII                    0000019E
CFGS                              00000006
CHS0                              00000002
MPASM 5.87  /HOME/MVALSELLS/LS-SDM-P2-SONO/S   3-29-2021  12:07:34         PAGE 15


SYMBOL TABLE
  LABEL                             VALUE 

CHS1                              00000003
CHS2                              00000004
CHS3                              00000005
CIS                               00000003
CK                                00000006
CKE                               00000006
CKP                               00000004
CLKI                              00000007
CLKO                              00000006
CM0                               00000000
CM1                               00000001
CM2                               00000002
CMCON                             00000FB4
CMIE                              00000006
CMIF                              00000006
CMIP                              00000006
COMPTAR_58                        0000014E
CONTINUA_NOM                      0000036C
CREN                              00000004
CS                                00000002
CSRC                              00000007
CVR0                              00000000
CVR1                              00000001
CVR2                              00000002
CVR3                              00000003
CVRCON                            00000FB5
CVREF                             00000002
CVREN                             00000007
CVROE                             00000006
CVRR                              00000005
CVRSS                             00000004
D                                 00000005
DC                                00000001
DC1B0                             00000004
DC1B1                             00000005
DC2B0                             00000004
DC2B1                             00000005
DDRA                              TRISA
DDRB                              TRISB
DDRC                              TRISC
DDRD                              TRISD
DDRE                              TRISE
DESENES_ASCII                     0000018E
DONE                              00000001
D_A                               00000005
D_NOT_A                           00000005
ECCP1AS                           00000FB6
ECCP1CON                          00000FBD
ECCP1DEL                          00000FB7
ECCPAS0                           00000004
ECCPAS1                           00000005
ECCPAS2                           00000006
ECCPASE                           00000007
MPASM 5.87  /HOME/MVALSELLS/LS-SDM-P2-SONO/S   3-29-2021  12:07:34         PAGE 16


SYMBOL TABLE
  LABEL                             VALUE 

EEADR                             00000FA9
EECON1                            00000FA6
EECON2                            00000FA7
EEDATA                            00000FA8
EEIE                              00000004
EEIF                              00000004
EEIP                              00000004
EEPGD                             00000007
EEPROM_READ                       000000EA
EEPROM_WRITE                      000000FA
ESPERA_CONVERSIO                  000001D6
ESPERA_ECHO                       00000142
ESPERA_EEPROM_ESCRIURE            00000124
ESPERA_TX                         00000202
FAST                              00000001
FERR                              00000002
FI_ASCII                          000001AC
FLT0                              00000000
FLTS                              00000002
FREE                              00000004
FSR0                              00000000
FSR0H                             00000FEA
FSR0L                             00000FE9
FSR1                              00000001
FSR1H                             00000FE2
FSR1L                             00000FE1
FSR2                              00000002
FSR2H                             00000FDA
FSR2L                             00000FD9
GCEN                              00000007
GIE                               00000007
GIEH                              00000007
GIEL                              00000006
GIE_GIEH                          00000007
GO                                00000001
GO_DONE                           00000001
GO_NOT_DONE                       00000001
HIGH_RSI                          000000D6
HLVDCON                           00000FD2
HLVDEN                            00000004
HLVDIE                            00000002
HLVDIF                            00000002
HLVDIN                            00000005
HLVDIP                            00000002
HLVDL0                            00000000
HLVDL1                            00000001
HLVDL2                            00000002
HLVDL3                            00000003
IBF                               00000007
IBOV                              00000005
IDLEN                             00000007
INCR_10us                         00000132
INDF0                             00000FEF
MPASM 5.87  /HOME/MVALSELLS/LS-SDM-P2-SONO/S   3-29-2021  12:07:34         PAGE 17


SYMBOL TABLE
  LABEL                             VALUE 

INDF1                             00000FE7
INDF2                             00000FDF
INICI_ECHO                        0000014A
INIT_ADCON                        000000A0
INIT_EEPROM                       0000009A
INIT_EUSART                       00000074
INIT_INTCONS                      0000008A
INIT_PORTS                        0000001A
INIT_TIMER                        00000094
INIT_VARS                         00000038
INT0                              00000000
INT0E                             00000004
INT0F                             00000001
INT0IE                            00000004
INT0IF                            00000001
INT1                              00000001
INT1E                             00000003
INT1F                             00000000
INT1IE                            00000003
INT1IF                            00000000
INT1IP                            00000006
INT1P                             00000006
INT2                              00000002
INT2E                             00000004
INT2F                             00000001
INT2IE                            00000004
INT2IF                            00000001
INT2IP                            00000007
INT2P                             00000007
INTCON                            00000FF2
INTCON2                           00000FF1
INTCON3                           00000FF0
INTEDG0                           00000006
INTEDG1                           00000005
INTEDG2                           00000004
INTSRC                            00000007
IOFS                              00000002
IPEN                              00000007
IPR1                              00000F9F
IPR2                              00000FA2
IRCF0                             00000004
IRCF1                             00000005
IRCF2                             00000006
IRVST                             00000005
KBI0                              00000004
KBI1                              00000005
KBI2                              00000006
KBI3                              00000007
LATA                              00000F89
LATA0                             00000000
LATA1                             00000001
LATA2                             00000002
LATA3                             00000003
MPASM 5.87  /HOME/MVALSELLS/LS-SDM-P2-SONO/S   3-29-2021  12:07:34         PAGE 18


SYMBOL TABLE
  LABEL                             VALUE 

LATA4                             00000004
LATA5                             00000005
LATA6                             00000006
LATA7                             00000007
LATB                              00000F8A
LATB0                             00000000
LATB1                             00000001
LATB2                             00000002
LATB3                             00000003
LATB4                             00000004
LATB5                             00000005
LATB6                             00000006
LATB7                             00000007
LATC                              00000F8B
LATC0                             00000000
LATC1                             00000001
LATC2                             00000002
LATC3                             00000003
LATC4                             00000004
LATC5                             00000005
LATC6                             00000006
LATC7                             00000007
LATD                              00000F8C
LATD0                             00000000
LATD1                             00000001
LATD2                             00000002
LATD3                             00000003
LATD4                             00000004
LATD5                             00000005
LATD6                             00000006
LATD7                             00000007
LATE                              00000F8D
LATE0                             00000000
LATE1                             00000001
LATE2                             00000002
LECTOR_EUSART                     00000230
LLEGIR_I                          000002DC
LLEGIR_JOY                        000001D4
LLEGIR_RX                         0000020A
LOOP                              000000CC
LVDCON                            00000FD2
LVDEN                             00000004
LVDIE                             00000002
LVDIF                             00000002
LVDIP                             00000002
LVDL0                             00000000
LVDL1                             00000001
LVDL2                             00000002
LVDL3                             00000003
LVV0                              00000000
LVV1                              00000001
LVV2                              00000002
LVV3                              00000003
MPASM 5.87  /HOME/MVALSELLS/LS-SDM-P2-SONO/S   3-29-2021  12:07:34         PAGE 19


SYMBOL TABLE
  LABEL                             VALUE 

MAIN                              000000AC
MCLR                              00000003
MEDIR                             0000012C
MODE_A                            000002AE
MODE_D                            000002BE
MODE_I                            000002D4
MODE_M                            0000030E
MODE_R                            0000031C
MODE_S                            000003E4
MODE_T                            000003F0
MODE_U                            000003F8
MOSTRA_MESURES                    00000372
MirarRB1                          000002CC
N                                 00000004
NEXT_A                            00000252
NEXT_D                            0000025E
NEXT_I                            0000026A
NEXT_M                            00000276
NEXT_R                            00000282
NEXT_S                            0000028E
NEXT_T                            0000029A
NEXT_U                            000002A6
NOT_A                             00000005
NOT_ADDRESS                       00000005
NOT_BOR                           00000000
NOT_CS                            00000002
NOT_DONE                          00000001
NOT_MCLR                          00000003
NOT_PD                            00000002
NOT_POR                           00000001
NOT_RBPU                          00000007
NOT_RD                            00000000
NOT_RI                            00000004
NOT_SS                            00000005
NOT_T1SYNC                        00000002
NOT_T3SYNC                        00000002
NOT_TO                            00000003
NOT_W                             00000002
NOT_WR                            00000001
NOT_WRITE                         00000002
NO_ENTER                          000002F4
OBF                               00000006
OERR                              00000001
OSC1                              00000007
OSC2                              00000006
OSCCON                            00000FD3
OSCFIE                            00000007
OSCFIF                            00000007
OSCFIP                            00000007
OSCTUNE                           00000F9B
OSTS                              00000003
OV                                00000003
P                                 00000004
MPASM 5.87  /HOME/MVALSELLS/LS-SDM-P2-SONO/S   3-29-2021  12:07:34         PAGE 20


SYMBOL TABLE
  LABEL                             VALUE 

P1A                               00000002
P1B                               00000005
P1C                               00000006
P1D                               00000007
P1M0                              00000006
P1M1                              00000007
PC                                00000FF9
PCFG0                             00000000
PCFG1                             00000001
PCFG2                             00000002
PCFG3                             00000003
PCL                               00000FF9
PCLATH                            00000FFA
PCLATU                            00000FFB
PD                                00000002
PDC0                              00000000
PDC1                              00000001
PDC2                              00000002
PDC3                              00000003
PDC4                              00000004
PDC5                              00000005
PDC6                              00000006
PEIE                              00000006
PEIE_GIEL                         00000006
PEN                               00000002
PGC                               00000006
PGD                               00000007
PGM                               00000005
PIE1                              00000F9D
PIE2                              00000FA0
PIR1                              00000F9E
PIR2                              00000FA1
PLLEN                             00000006
PLUSW0                            00000FEB
PLUSW1                            00000FE3
PLUSW2                            00000FDB
POR                               00000001
PORTA                             00000F80
PORTB                             00000F81
PORTC                             00000F82
PORTD                             00000F83
PORTE                             00000F84
POSTDEC0                          00000FED
POSTDEC1                          00000FE5
POSTDEC2                          00000FDD
POSTINC0                          00000FEE
POSTINC1                          00000FE6
POSTINC2                          00000FDE
PR2                               00000FCB
PREINC0                           00000FEC
PREINC1                           00000FE4
PREINC2                           00000FDC
PROD                              00000FF3
MPASM 5.87  /HOME/MVALSELLS/LS-SDM-P2-SONO/S   3-29-2021  12:07:34         PAGE 21


SYMBOL TABLE
  LABEL                             VALUE 

PRODH                             00000FF4
PRODL                             00000FF3
PRSEN                             00000007
PSA                               00000003
PSP0                              00000000
PSP1                              00000001
PSP2                              00000002
PSP3                              00000003
PSP4                              00000004
PSP5                              00000005
PSP6                              00000006
PSP7                              00000007
PSPIE                             00000007
PSPIF                             00000007
PSPIP                             00000007
PSPMODE                           00000004
PSSAC0                            00000002
PSSAC1                            00000003
PSSBD0                            00000000
PSSBD1                            00000001
PWM1CON                           00000FB7
R                                 00000002
RA0                               00000000
RA1                               00000001
RA2                               00000002
RA3                               00000003
RA4                               00000004
RA5                               00000005
RA6                               00000006
RA7                               00000007
RAM_WRITE                         0000011A
RB0                               00000000
RB1                               00000001
RB2                               00000002
RB3                               00000003
RB4                               00000004
RB5                               00000005
RB6                               00000006
RB7                               00000007
RBIE                              00000003
RBIF                              00000000
RBIP                              00000000
RBPU                              00000007
RC0                               00000000
RC1                               00000001
RC2                               00000002
RC3                               00000003
RC4                               00000004
RC5                               00000005
RC6                               00000006
RC7                               00000007
RCEN                              00000003
RCIDL                             00000006
MPASM 5.87  /HOME/MVALSELLS/LS-SDM-P2-SONO/S   3-29-2021  12:07:34         PAGE 22


SYMBOL TABLE
  LABEL                             VALUE 

RCIE                              00000005
RCIF                              00000005
RCIP                              00000005
RCMT                              00000006
RCON                              00000FD0
RCREG                             00000FAE
RCSTA                             00000FAB
RD                                00000000
RD0                               00000000
RD1                               00000001
RD16                              00000007
RD2                               00000002
RD3                               00000003
RD4                               00000004
RD5                               00000005
RD6                               00000006
RD7                               00000007
RE0                               00000000
RE1                               00000001
RE2                               00000002
RE3                               00000003
RI                                00000004
RSEN                              00000001
RX                                00000007
RX9                               00000006
RX9D                              00000000
RXDTP                             00000005
R_NOT_W                           00000002
R_W                               00000002
S                                 00000003
SBOREN                            00000006
SCK                               00000003
SCKP                              00000004
SCL                               00000003
SCS0                              00000000
SCS1                              00000001
SDA                               00000004
SDI                               00000004
SDO                               00000005
SEN                               00000000
SENDB                             00000003
SMP                               00000007
SP0                               00000000
SP1                               00000001
SP2                               00000002
SP3                               00000003
SP4                               00000004
SPBRG                             00000FAF
SPBRGH                            00000FB0
SPEN                              00000007
SREN                              00000005
SSPADD                            00000FC8
SSPBUF                            00000FC9
MPASM 5.87  /HOME/MVALSELLS/LS-SDM-P2-SONO/S   3-29-2021  12:07:34         PAGE 23


SYMBOL TABLE
  LABEL                             VALUE 

SSPCON1                           00000FC6
SSPCON2                           00000FC5
SSPEN                             00000005
SSPIE                             00000003
SSPIF                             00000003
SSPIP                             00000003
SSPM0                             00000000
SSPM1                             00000001
SSPM2                             00000002
SSPM3                             00000003
SSPOV                             00000006
SSPSTAT                           00000FC7
STATUS                            00000FD8
STKFUL                            00000007
STKOVF                            00000007
STKPTR                            00000FFC
STKUNF                            00000006
SWDTE                             00000000
SWDTEN                            00000000
SYNC                              00000004
T016BIT                           00000006
T08BIT                            00000006
T0CKI                             00000004
T0CON                             00000FD5
T0CS                              00000005
T0IE                              00000005
T0IF                              00000002
T0PS0                             00000000
T0PS1                             00000001
T0PS2                             00000002
T0SE                              00000004
T13CKI                            00000000
T1CKI                             00000000
T1CKPS0                           00000004
T1CKPS1                           00000005
T1CON                             00000FCD
T1OSCEN                           00000003
T1OSI                             00000001
T1OSO                             00000000
T1RUN                             00000006
T1SYNC                            00000002
T2CKPS0                           00000000
T2CKPS1                           00000001
T2CON                             00000FCA
T2OUTPS0                          00000003
T2OUTPS1                          00000004
T2OUTPS2                          00000005
T2OUTPS3                          00000006
T3CCP1                            00000003
T3CCP2                            00000006
T3CKPS0                           00000004
T3CKPS1                           00000005
T3CON                             00000FB1
MPASM 5.87  /HOME/MVALSELLS/LS-SDM-P2-SONO/S   3-29-2021  12:07:34         PAGE 24


SYMBOL TABLE
  LABEL                             VALUE 

T3SYNC                            00000002
TABLAT                            00000FF5
TBLPTR                            00000FF6
TBLPTRH                           00000FF7
TBLPTRL                           00000FF6
TBLPTRU                           00000FF8
TMR0                              00000FD6
TMR0H                             00000FD7
TMR0IE                            00000005
TMR0IF                            00000002
TMR0IP                            00000002
TMR0L                             00000FD6
TMR0ON                            00000007
TMR1                              00000FCE
TMR1CS                            00000001
TMR1H                             00000FCF
TMR1IE                            00000000
TMR1IF                            00000000
TMR1IP                            00000000
TMR1L                             00000FCE
TMR1ON                            00000000
TMR2                              00000FCC
TMR2IE                            00000001
TMR2IF                            00000001
TMR2IP                            00000001
TMR2ON                            00000002
TMR3                              00000FB2
TMR3CS                            00000001
TMR3H                             00000FB3
TMR3IE                            00000001
TMR3IF                            00000001
TMR3IP                            00000001
TMR3L                             00000FB2
TMR3ON                            00000000
TO                                00000003
TOS                               00000FFD
TOSH                              00000FFE
TOSL                              00000FFD
TOSU                              00000FFF
TOUTPS0                           00000003
TOUTPS1                           00000004
TOUTPS2                           00000005
TOUTPS3                           00000006
TRISA                             00000F92
TRISA0                            00000000
TRISA1                            00000001
TRISA2                            00000002
TRISA3                            00000003
TRISA4                            00000004
TRISA5                            00000005
TRISA6                            00000006
TRISA7                            00000007
TRISB                             00000F93
MPASM 5.87  /HOME/MVALSELLS/LS-SDM-P2-SONO/S   3-29-2021  12:07:34         PAGE 25


SYMBOL TABLE
  LABEL                             VALUE 

TRISB0                            00000000
TRISB1                            00000001
TRISB2                            00000002
TRISB3                            00000003
TRISB4                            00000004
TRISB5                            00000005
TRISB6                            00000006
TRISB7                            00000007
TRISC                             00000F94
TRISC0                            00000000
TRISC1                            00000001
TRISC2                            00000002
TRISC3                            00000003
TRISC4                            00000004
TRISC5                            00000005
TRISC6                            00000006
TRISC7                            00000007
TRISD                             00000F95
TRISD0                            00000000
TRISD1                            00000001
TRISD2                            00000002
TRISD3                            00000003
TRISD4                            00000004
TRISD5                            00000005
TRISD6                            00000006
TRISD7                            00000007
TRISE                             00000F96
TRISE0                            00000000
TRISE1                            00000001
TRISE2                            00000002
TRMT                              00000001
TUN0                              00000000
TUN1                              00000001
TUN2                              00000002
TUN3                              00000003
TUN4                              00000004
TX                                00000006
TX9                               00000006
TX9D                              00000000
TXCKP                             00000004
TXEN                              00000005
TXIE                              00000004
TXIF                              00000004
TXIP                              00000004
TXREG                             00000FAD
TXSTA                             00000FAC
TX_BN_2_ASCII                     000001BA
TX_ENTER                          0000021E
UA                                00000001
VCFG0                             00000004
VCFG1                             00000005
VDIRMAG                           00000007
VPP                               00000003
MPASM 5.87  /HOME/MVALSELLS/LS-SDM-P2-SONO/S   3-29-2021  12:07:34         PAGE 26


SYMBOL TABLE
  LABEL                             VALUE 

VREFM                             00000002
VREFP                             00000003
W                                 00000000
WCOL                              00000007
WDTCON                            00000FD1
WR                                00000001
WREG                              00000FE8
WREN                              00000002
WRERR                             00000003
WUE                               00000001
Z                                 00000002
_BBSIZ_BB1K_4L                    000000FF
_BBSIZ_BB256_4L                   000000CF
_BBSIZ_BB512_4L                   000000DF
_BORV_0_2L                        000000E7
_BORV_1_2L                        000000EF
_BORV_2_2L                        000000F7
_BORV_3_2L                        000000FF
_BOR_NOSLP_2L                     000000FD
_BOR_OFF_2L                       000000F9
_BOR_ON_2L                        000000FF
_BOR_SOFT_2L                      000000FB
_CCP2MX_RB3_3H                    000000FE
_CCP2MX_RC1_3H                    000000FF
_CONFIG1H                         00300001
_CONFIG2H                         00300003
_CONFIG2L                         00300002
_CONFIG3H                         00300005
_CONFIG4L                         00300006
_CONFIG5H                         00300009
_CONFIG5L                         00300008
_CONFIG6H                         0030000B
_CONFIG6L                         0030000A
_CONFIG7H                         0030000D
_CONFIG7L                         0030000C
_CP0_OFF_5L                       000000FF
_CP0_ON_5L                        000000FE
_CP1_OFF_5L                       000000FF
_CP1_ON_5L                        000000FD
_CPB_OFF_5H                       000000FF
_CPB_ON_5H                        000000BF
_CPD_OFF_5H                       000000FF
_CPD_ON_5H                        0000007F
_DEBUG_OFF_4L                     000000FF
_DEBUG_ON_4L                      0000007F
_DEVID1                           003FFFFE
_DEVID2                           003FFFFF
_EBTR0_OFF_7L                     000000FF
_EBTR0_ON_7L                      000000FE
_EBTR1_OFF_7L                     000000FF
_EBTR1_ON_7L                      000000FD
_EBTRB_OFF_7H                     000000FF
_EBTRB_ON_7H                      000000BF
MPASM 5.87  /HOME/MVALSELLS/LS-SDM-P2-SONO/S   3-29-2021  12:07:34         PAGE 27


SYMBOL TABLE
  LABEL                             VALUE 

_FCMEN_OFF_1H                     000000BF
_FCMEN_ON_1H                      000000FF
_IDLOC0                           00200000
_IDLOC1                           00200001
_IDLOC2                           00200002
_IDLOC3                           00200003
_IDLOC4                           00200004
_IDLOC5                           00200005
_IDLOC6                           00200006
_IDLOC7                           00200007
_IESO_OFF_1H                      0000007F
_IESO_ON_1H                       000000FF
_LPT1OSC_OFF_3H                   000000FB
_LPT1OSC_ON_3H                    000000FF
_LVP_OFF_4L                       000000FB
_LVP_ON_4L                        000000FF
_MCLRE_OFF_3H                     0000007F
_MCLRE_ON_3H                      000000FF
_OSC_ECIO_1H                      000000F5
_OSC_EC_1H                        000000F4
_OSC_HSPLL_1H                     000000F6
_OSC_HS_1H                        000000F2
_OSC_INTIO1_1H                    000000F9
_OSC_INTIO2_1H                    000000F8
_OSC_LP_1H                        000000F0
_OSC_RCIO_1H                      000000F7
_OSC_RC_1H                        000000F3
_OSC_XT_1H                        000000F1
_PBADEN_ANA_3H                    000000FF
_PBADEN_DIG_3H                    000000FD
_PWRT_OFF_2L                      000000FF
_PWRT_ON_2L                       000000FE
_STVREN_OFF_4L                    000000FE
_STVREN_ON_4L                     000000FF
_WDTPS_1024_2H                    000000F5
_WDTPS_128_2H                     000000EF
_WDTPS_16384_2H                   000000FD
_WDTPS_16_2H                      000000E9
_WDTPS_1_2H                       000000E1
_WDTPS_2048_2H                    000000F7
_WDTPS_256_2H                     000000F1
_WDTPS_2_2H                       000000E3
_WDTPS_32768_2H                   000000FF
_WDTPS_32_2H                      000000EB
_WDTPS_4096_2H                    000000F9
_WDTPS_4_2H                       000000E5
_WDTPS_512_2H                     000000F3
_WDTPS_64_2H                      000000ED
_WDTPS_8192_2H                    000000FB
_WDTPS_8_2H                       000000E7
_WDT_OFF_2H                       000000FE
_WDT_ON_2H                        000000FF
_WRT0_OFF_6L                      000000FF
MPASM 5.87  /HOME/MVALSELLS/LS-SDM-P2-SONO/S   3-29-2021  12:07:34         PAGE 28


SYMBOL TABLE
  LABEL                             VALUE 

_WRT0_ON_6L                       000000FE
_WRT1_OFF_6L                      000000FF
_WRT1_ON_6L                       000000FD
_WRTB_OFF_6H                      000000FF
_WRTB_ON_6H                       000000BF
_WRTC_OFF_6H                      000000FF
_WRTC_ON_6H                       000000DF
_WRTD_OFF_6H                      000000FF
_WRTD_ON_6H                       0000007F
_XINST_OFF_4L                     000000BF
_XINST_ON_4L                      000000FF
__18F4321                         00000001
__DEBUG                           
__MPLAB_DEBUGGER_PK3              1
ascii_c                           00000016
ascii_d                           00000015
ascii_u                           00000014
bn_ascii                          00000013
carrier                           0000000C
compt_10us                        00000010
display0                          00000000
display1                          00000001
display2                          00000002
display3                          00000003
display4                          00000004
display5                          00000005
display6                          00000006
display7                          00000007
display8                          00000008
display9                          00000009
eeprom_addr                       0000000E
eeprom_data                       0000000F
eusart_input                      0000000A
eusart_output                     0000000D
fsr_h                             0000001A
fsr_l                             0000001B
pos_servo                         0000000B
ram_200                           00000019
ram_addr_count                    00000018
ram_data                          00000017
tmp                               0000001C
us_echo_58                        00000011
us_echo_cm                        00000012

Errors   :     0
Warnings :     1 reported,     0 suppressed
Messages :     0 reported,     0 suppressed

